; Function Attrs: mustprogress nounwind uwtable
define void @_ZN7glslang14TParseVersions14requireProfileERKNS_10TSourceLocEiPKc(ptr noundef nonnull align 8 dereferenceable(224) %0, ptr noundef nonnull align 8 dereferenceable(24) %1, i32 noundef %2, ptr noundef %3) local_unnamed_addr #0 align 2 {
  %5 = getelementptr inbounds i8, ptr %0, i64 12
  %6 = load i32, ptr %5, align 4
  %7 = and i32 %6, %2
  %.not = icmp eq i32 %7, 0
  br i1 %.not, label %8, label %14

8:                                                ; preds = %4
  %switch.tableidx = add i32 %6, -1
  %9 = icmp ult i32 %switch.tableidx, 8
  br i1 %9, label %switch.lookup, label %_ZN7glslang11ProfileNameE8EProfile.exit

switch.lookup:                                    ; preds = %8
  %10 = zext nneg i32 %switch.tableidx to i64
  %switch.gep = getelementptr inbounds [8 x ptr], ptr @switch.table._ZN7glslang14TParseVersions10int64CheckERKNS_10TSourceLocEPKcb, i64 0, i64 %10
  %switch.load = load ptr, ptr %switch.gep, align 8
  br label %_ZN7glslang11ProfileNameE8EProfile.exit

_ZN7glslang11ProfileNameE8EProfile.exit:          ; preds = %8, %switch.lookup
  %.0.i = phi ptr [ %switch.load, %switch.lookup ], [ @.str.275, %8 ]
  %11 = load ptr, ptr %0, align 8
  %12 = getelementptr inbounds i8, ptr %11, i64 344
  %13 = load ptr, ptr %12, align 8
  tail call void (ptr, ptr, ptr, ptr, ptr, ...) %13(ptr noundef nonnull align 8 dereferenceable(224) %0, ptr noundef nonnull align 8 dereferenceable(24) %1, ptr noundef nonnull @.str.236, ptr noundef %3, ptr noundef nonnull %.0.i) #15
  br label %14

14:                                               ; preds = %_ZN7glslang11ProfileNameE8EProfile.exit, %4
  ret void
}